; Function Attrs: mustprogress nofree norecurse nosync nounwind sspstrong willreturn memory(argmem: readwrite) uwtable
define internal range(i64 1, 5) i64 @fun_so_from_utf_32be(ptr readnone captures(none) %0, ptr noundef readonly captures(none) %1, i64 %2, ptr noundef writeonly captures(none) initializes((0, 1)) %3, i64 %4) #2 {
  %6 = getelementptr inbounds nuw i8, ptr %1, i64 1
  %7 = load i8, ptr %6, align 1, !tbaa !6
  %.not = icmp eq i8 %7, 0
  br i1 %.not, label %8, label %43

8:                                                ; preds = %5
  %9 = getelementptr inbounds nuw i8, ptr %1, i64 2
  %10 = load i8, ptr %9, align 1, !tbaa !6
  %11 = icmp eq i8 %10, 0
  br i1 %11, label %12, label %17

12:                                               ; preds = %8
  %13 = getelementptr inbounds nuw i8, ptr %1, i64 3
  %14 = load i8, ptr %13, align 1, !tbaa !6
  %15 = icmp sgt i8 %14, -1
  br i1 %15, label %16, label %.thread

16:                                               ; preds = %12
  store i8 %14, ptr %3, align 1, !tbaa !6
  br label %68

17:                                               ; preds = %8
  %18 = icmp ult i8 %10, 8
  br i1 %18, label %..thread_crit_edge, label %27

..thread_crit_edge:                               ; preds = %17
  %.phi.trans.insert = getelementptr inbounds nuw i8, ptr %1, i64 3
  %.pre = load i8, ptr %.phi.trans.insert, align 1, !tbaa !6
  br label %.thread

.thread:                                          ; preds = %..thread_crit_edge, %12
  %19 = phi i8 [ %.pre, %..thread_crit_edge ], [ %14, %12 ]
  %20 = getelementptr inbounds nuw i8, ptr %1, i64 3
  %21 = tail call i8 @llvm.fshl.i8(i8 %10, i8 %19, i8 2)
  %22 = or disjoint i8 %21, -64
  store i8 %22, ptr %3, align 1, !tbaa !6
  %23 = load i8, ptr %20, align 1, !tbaa !6
  %24 = and i8 %23, 63
  %25 = or disjoint i8 %24, -128
  %26 = getelementptr inbounds nuw i8, ptr %3, i64 1
  store i8 %25, ptr %26, align 1, !tbaa !6
  br label %68

27:                                               ; preds = %17
  %28 = lshr i8 %10, 4
  %29 = or disjoint i8 %28, -32
  store i8 %29, ptr %3, align 1, !tbaa !6
  %30 = load i8, ptr %9, align 1, !tbaa !6
  %31 = shl i8 %30, 2
  %32 = and i8 %31, 60
  %33 = getelementptr inbounds nuw i8, ptr %1, i64 3
  %34 = load i8, ptr %33, align 1, !tbaa !6
  %35 = lshr i8 %34, 6
  %36 = or disjoint i8 %35, %32
  %37 = or disjoint i8 %36, -128
  %38 = getelementptr inbounds nuw i8, ptr %3, i64 1
  store i8 %37, ptr %38, align 1, !tbaa !6
  %39 = load i8, ptr %33, align 1, !tbaa !6
  %40 = and i8 %39, 63
  %41 = or disjoint i8 %40, -128
  %42 = getelementptr inbounds nuw i8, ptr %3, i64 2
  store i8 %41, ptr %42, align 1, !tbaa !6
  br label %68

43:                                               ; preds = %5
  %44 = lshr i8 %7, 2
  %45 = or i8 %44, -16
  store i8 %45, ptr %3, align 1, !tbaa !6
  %46 = load i8, ptr %6, align 1, !tbaa !6
  %47 = shl i8 %46, 4
  %48 = and i8 %47, 48
  %49 = getelementptr inbounds nuw i8, ptr %1, i64 2
  %50 = load i8, ptr %49, align 1, !tbaa !6
  %51 = lshr i8 %50, 4
  %52 = or disjoint i8 %51, %48
  %53 = or disjoint i8 %52, -128
  %54 = getelementptr inbounds nuw i8, ptr %3, i64 1
  store i8 %53, ptr %54, align 1, !tbaa !6
  %55 = load i8, ptr %49, align 1, !tbaa !6
  %56 = shl i8 %55, 2
  %57 = and i8 %56, 60
  %58 = getelementptr inbounds nuw i8, ptr %1, i64 3
  %59 = load i8, ptr %58, align 1, !tbaa !6
  %60 = lshr i8 %59, 6
  %61 = or disjoint i8 %60, %57
  %62 = or disjoint i8 %61, -128
  %63 = getelementptr inbounds nuw i8, ptr %3, i64 2
  store i8 %62, ptr %63, align 1, !tbaa !6
  %64 = load i8, ptr %58, align 1, !tbaa !6
  %65 = and i8 %64, 63
  %66 = or disjoint i8 %65, -128
  %67 = getelementptr inbounds nuw i8, ptr %3, i64 3
  store i8 %66, ptr %67, align 1, !tbaa !6
  br label %68

68:                                               ; preds = %43, %27, %.thread, %16
  %.0 = phi i64 [ 4, %43 ], [ 1, %16 ], [ 2, %.thread ], [ 3, %27 ]
  ret i64 %.0
}